target datalayout = "e-m:e-p270:32:32-p271:32:32-p272:64:64-i64:64-i128:128-f80:128-n8:16:32:64-S128"
target triple = "x86_64-unknown-linux-gnu"

%"class.std::__cxx11::basic_string" = type { %"struct.std::__cxx11::basic_string<char>::_Alloc_hider", i64, %union.anon }
%"struct.std::__cxx11::basic_string<char>::_Alloc_hider" = type { ptr }
%union.anon = type { i64, [8 x i8] }
%"class.std::shared_ptr.18" = type { %"class.std::__shared_ptr.19" }
%"class.std::__shared_ptr.19" = type { ptr, %"class.std::__shared_count" }
%"class.std::__shared_count" = type { ptr }
%"class.rocksdb::CompactionJob" = type { ptr, ptr, %"struct.rocksdb::InternalStats::CompactionStatsFull", ptr, %"struct.rocksdb::MutableDBOptions", ptr, ptr, ptr, i8, i32, %"class.rocksdb::IOStatus", ptr, i32, ptr, %"class.std::__cxx11::basic_string", %"class.std::__cxx11::basic_string", %"struct.rocksdb::FileOptions", ptr, %"class.std::shared_ptr.15", %"class.rocksdb::FileSystemPtr", %"struct.rocksdb::FileOptions", ptr, ptr, ptr, ptr, ptr, ptr, ptr, %"class.std::vector.3", i64, ptr, ptr, %"class.std::shared_ptr", ptr, i8, i8, %"class.std::vector.24", i32, %"class.std::__cxx11::basic_string", %"class.std::__cxx11::basic_string", ptr, i32, ptr, ptr, %"class.rocksdb::SeqnoToTimeMapping", i64, i64 }
%"struct.rocksdb::InternalStats::CompactionStatsFull" = type { %"struct.rocksdb::InternalStats::CompactionStats", i8, [7 x i8], %"struct.rocksdb::InternalStats::CompactionStats" }
%"struct.rocksdb::InternalStats::CompactionStats" = type <{ i64, i64, i64, i64, i64, i64, i64, i64, i32, i32, i32, i32, i64, i64, i64, i32, [20 x i32], [4 x i8] }>
%"struct.rocksdb::MutableDBOptions" = type { i32, i32, i32, i8, i64, i64, i64, i64, i32, i32, i64, i32, i64, i64, i8, i64, i32, %"class.std::__cxx11::basic_string" }
%"class.rocksdb::IOStatus" = type { %"class.rocksdb::Status" }
%"class.rocksdb::Status" = type { i8, i8, i8, i8, i8, i8, %"class.std::unique_ptr" }
%"class.std::unique_ptr" = type { %"struct.std::__uniq_ptr_data" }
%"struct.std::__uniq_ptr_data" = type { %"class.std::__uniq_ptr_impl" }
%"class.std::__uniq_ptr_impl" = type { %"class.std::tuple" }
%"class.std::tuple" = type { %"struct.std::_Tuple_impl" }
%"struct.std::_Tuple_impl" = type { %"struct.std::_Head_base.9" }
%"struct.std::_Head_base.9" = type { ptr }
%"class.std::shared_ptr.15" = type { %"class.std::__shared_ptr.16" }
%"class.std::__shared_ptr.16" = type { ptr, %"class.std::__shared_count" }
%"class.rocksdb::FileSystemPtr" = type { %"class.std::shared_ptr.18", %"class.std::shared_ptr.15", %"class.std::shared_ptr.21" }
%"class.std::shared_ptr.21" = type { %"class.std::__shared_ptr.22" }
%"class.std::__shared_ptr.22" = type { ptr, %"class.std::__shared_count" }
%"struct.rocksdb::FileOptions" = type <{ %"struct.rocksdb::EnvOptions", %"struct.rocksdb::IOOptions", i8, i8, [6 x i8] }>
%"struct.rocksdb::EnvOptions" = type { i8, i8, i8, i8, i8, i8, i64, i8, i8, i64, i64, i64, ptr }
%"struct.rocksdb::IOOptions" = type <{ %"class.std::chrono::duration", i8, [3 x i8], i32, i8, [7 x i8], %"class.std::unordered_map", i8, i8, i8, [5 x i8] }>
%"class.std::chrono::duration" = type { i64 }
%"class.std::unordered_map" = type { %"class.std::_Hashtable" }
%"class.std::_Hashtable" = type { ptr, i64, %"struct.std::__detail::_Hash_node_base", i64, %"struct.std::__detail::_Prime_rehash_policy", ptr }
%"struct.std::__detail::_Hash_node_base" = type { ptr }
%"struct.std::__detail::_Prime_rehash_policy" = type { float, i64 }
%"class.std::vector.3" = type { %"struct.std::_Vector_base.4" }
%"struct.std::_Vector_base.4" = type { %"struct.std::_Vector_base<unsigned long, std::allocator<unsigned long>>::_Vector_impl" }
%"struct.std::_Vector_base<unsigned long, std::allocator<unsigned long>>::_Vector_impl" = type { %"struct.std::_Vector_base<unsigned long, std::allocator<unsigned long>>::_Vector_impl_data" }
%"struct.std::_Vector_base<unsigned long, std::allocator<unsigned long>>::_Vector_impl_data" = type { ptr, ptr, ptr }
%"class.std::shared_ptr" = type { %"class.std::__shared_ptr" }
%"class.std::__shared_ptr" = type { ptr, %"class.std::__shared_count" }
%"class.std::vector.24" = type { %"struct.std::_Vector_base.25" }
%"struct.std::_Vector_base.25" = type { %"struct.std::_Vector_base<std::__cxx11::basic_string<char>, std::allocator<std::__cxx11::basic_string<char>>>::_Vector_impl" }
%"struct.std::_Vector_base<std::__cxx11::basic_string<char>, std::allocator<std::__cxx11::basic_string<char>>>::_Vector_impl" = type { %"struct.std::_Vector_base<std::__cxx11::basic_string<char>, std::allocator<std::__cxx11::basic_string<char>>>::_Vector_impl_data" }
%"struct.std::_Vector_base<std::__cxx11::basic_string<char>, std::allocator<std::__cxx11::basic_string<char>>>::_Vector_impl_data" = type { ptr, ptr, ptr }
%"class.rocksdb::SeqnoToTimeMapping" = type <{ i64, i64, %"class.std::deque", i8, [7 x i8] }>
%"class.std::deque" = type { %"class.std::_Deque_base" }
%"class.std::_Deque_base" = type { %"struct.std::_Deque_base<rocksdb::SeqnoToTimeMapping::SeqnoTimePair, std::allocator<rocksdb::SeqnoToTimeMapping::SeqnoTimePair>>::_Deque_impl" }
%"struct.std::_Deque_base<rocksdb::SeqnoToTimeMapping::SeqnoTimePair, std::allocator<rocksdb::SeqnoToTimeMapping::SeqnoTimePair>>::_Deque_impl" = type { %"struct.std::_Deque_base<rocksdb::SeqnoToTimeMapping::SeqnoTimePair, std::allocator<rocksdb::SeqnoToTimeMapping::SeqnoTimePair>>::_Deque_impl_data" }
%"struct.std::_Deque_base<rocksdb::SeqnoToTimeMapping::SeqnoTimePair, std::allocator<rocksdb::SeqnoToTimeMapping::SeqnoTimePair>>::_Deque_impl_data" = type { ptr, i64, %"struct.std::_Deque_iterator", %"struct.std::_Deque_iterator" }
%"struct.std::_Deque_iterator" = type { ptr, ptr, ptr, ptr }
%"struct.rocksdb::CompactionJobStats" = type { i64, i64, i8, i64, i64, i64, i64, i64, i64, i64, i8, i8, i64, i64, i64, i64, i64, i64, i64, i64, i64, i64, i64, i64, i64, i64, %"class.std::__cxx11::basic_string", %"class.std::__cxx11::basic_string", i64, i64 }
%"struct.rocksdb::CompactionIterationStats" = type { i64, i64, i64, i64, i64, i64, i64, i64, i64, i64, i64, i64, i64, i64, i64, i64, i64, i64 }

; Function Attrs: mustprogress uwtable
define linkonce_odr void @_ZN7rocksdb10RecordTickEPNS_10StatisticsEjm(ptr noundef %statistics, i32 noundef %ticker_type, i64 noundef %count) #0 comdat {
entry:
  %statistics.addr = alloca ptr, align 8
  %ticker_type.addr = alloca i32, align 4
  %count.addr = alloca i64, align 8
  store ptr %statistics, ptr %statistics.addr, align 8
  store i32 %ticker_type, ptr %ticker_type.addr, align 4
  store i64 %count, ptr %count.addr, align 8
  %0 = load ptr, ptr %statistics.addr, align 8
  %tobool = icmp ne ptr %0, null
  br i1 %tobool, label %if.then, label %if.end

if.then:                                          ; preds = %entry
  %1 = load ptr, ptr %statistics.addr, align 8
  %2 = load i32, ptr %ticker_type.addr, align 4
  %3 = load i64, ptr %count.addr, align 8
  %vtable = load ptr, ptr %1, align 8
  %vfn = getelementptr inbounds ptr, ptr %vtable, i64 22
  %4 = load ptr, ptr %vfn, align 8
  call void %4(ptr noundef nonnull align 8 dereferenceable(33) %1, i32 noundef %2, i64 noundef %3)
  br label %if.end

if.end:                                           ; preds = %if.then, %entry
  ret void
}

; Function Attrs: mustprogress uwtable
define void @_ZN7rocksdb13CompactionJob17RecordDroppedKeysERKNS_24CompactionIterationStatsEPNS_18CompactionJobStatsE(ptr noundef nonnull align 8 dereferenceable(1456) %this, ptr noundef nonnull align 8 dereferenceable(144) %c_iter_stats, ptr noundef %compaction_job_stats) #0 align 2 {
entry:
  %this.addr = alloca ptr, align 8
  %c_iter_stats.addr = alloca ptr, align 8
  %compaction_job_stats.addr = alloca ptr, align 8
  store ptr %this, ptr %this.addr, align 8
  store ptr %c_iter_stats, ptr %c_iter_stats.addr, align 8
  store ptr %compaction_job_stats, ptr %compaction_job_stats.addr, align 8
  %this1 = load ptr, ptr %this.addr, align 8
  %0 = load ptr, ptr %c_iter_stats.addr, align 8
  %num_record_drop_user = getelementptr inbounds %"struct.rocksdb::CompactionIterationStats", ptr %0, i32 0, i32 0
  %1 = load i64, ptr %num_record_drop_user, align 8
  %cmp = icmp sgt i64 %1, 0
  br i1 %cmp, label %if.then, label %if.end

if.then:                                          ; preds = %entry
  %stats_ = getelementptr inbounds %"class.rocksdb::CompactionJob", ptr %this1, i32 0, i32 7
  %2 = load ptr, ptr %stats_, align 8
  %3 = load ptr, ptr %c_iter_stats.addr, align 8
  %num_record_drop_user2 = getelementptr inbounds %"struct.rocksdb::CompactionIterationStats", ptr %3, i32 0, i32 0
  %4 = load i64, ptr %num_record_drop_user2, align 8
  call void @_ZN7rocksdb10RecordTickEPNS_10StatisticsEjm(ptr noundef %2, i32 noundef 33, i64 noundef %4)
  br label %if.end

if.end:                                           ; preds = %if.then, %entry
  %5 = load ptr, ptr %c_iter_stats.addr, align 8
  %num_record_drop_hidden = getelementptr inbounds %"struct.rocksdb::CompactionIterationStats", ptr %5, i32 0, i32 1
  %6 = load i64, ptr %num_record_drop_hidden, align 8
  %cmp3 = icmp sgt i64 %6, 0
  br i1 %cmp3, label %if.then4, label %if.end10

if.then4:                                         ; preds = %if.end
  %stats_5 = getelementptr inbounds %"class.rocksdb::CompactionJob", ptr %this1, i32 0, i32 7
  %7 = load ptr, ptr %stats_5, align 8
  %8 = load ptr, ptr %c_iter_stats.addr, align 8
  %num_record_drop_hidden6 = getelementptr inbounds %"struct.rocksdb::CompactionIterationStats", ptr %8, i32 0, i32 1
  %9 = load i64, ptr %num_record_drop_hidden6, align 8
  call void @_ZN7rocksdb10RecordTickEPNS_10StatisticsEjm(ptr noundef %7, i32 noundef 30, i64 noundef %9)
  %10 = load ptr, ptr %compaction_job_stats.addr, align 8
  %tobool = icmp ne ptr %10, null
  br i1 %tobool, label %if.then7, label %if.end9

if.then7:                                         ; preds = %if.then4
  %11 = load ptr, ptr %c_iter_stats.addr, align 8
  %num_record_drop_hidden8 = getelementptr inbounds %"struct.rocksdb::CompactionIterationStats", ptr %11, i32 0, i32 1
  %12 = load i64, ptr %num_record_drop_hidden8, align 8
  %13 = load ptr, ptr %compaction_job_stats.addr, align 8
  %num_records_replaced = getelementptr inbounds %"struct.rocksdb::CompactionJobStats", ptr %13, i32 0, i32 16
  %14 = load i64, ptr %num_records_replaced, align 8
  %add = add i64 %14, %12
  store i64 %add, ptr %num_records_replaced, align 8
  br label %if.end9

if.end9:                                          ; preds = %if.then7, %if.then4
  br label %if.end10

if.end10:                                         ; preds = %if.end9, %if.end
  %15 = load ptr, ptr %c_iter_stats.addr, align 8
  %num_record_drop_obsolete = getelementptr inbounds %"struct.rocksdb::CompactionIterationStats", ptr %15, i32 0, i32 2
  %16 = load i64, ptr %num_record_drop_obsolete, align 8
  %cmp11 = icmp sgt i64 %16, 0
  br i1 %cmp11, label %if.then12, label %if.end20

if.then12:                                        ; preds = %if.end10
  %stats_13 = getelementptr inbounds %"class.rocksdb::CompactionJob", ptr %this1, i32 0, i32 7
  %17 = load ptr, ptr %stats_13, align 8
  %18 = load ptr, ptr %c_iter_stats.addr, align 8
  %num_record_drop_obsolete14 = getelementptr inbounds %"struct.rocksdb::CompactionIterationStats", ptr %18, i32 0, i32 2
  %19 = load i64, ptr %num_record_drop_obsolete14, align 8
  call void @_ZN7rocksdb10RecordTickEPNS_10StatisticsEjm(ptr noundef %17, i32 noundef 31, i64 noundef %19)
  %20 = load ptr, ptr %compaction_job_stats.addr, align 8
  %tobool15 = icmp ne ptr %20, null
  br i1 %tobool15, label %if.then16, label %if.end19

if.then16:                                        ; preds = %if.then12
  %21 = load ptr, ptr %c_iter_stats.addr, align 8
  %num_record_drop_obsolete17 = getelementptr inbounds %"struct.rocksdb::CompactionIterationStats", ptr %21, i32 0, i32 2
  %22 = load i64, ptr %num_record_drop_obsolete17, align 8
  %23 = load ptr, ptr %compaction_job_stats.addr, align 8
  %num_expired_deletion_records = getelementptr inbounds %"struct.rocksdb::CompactionJobStats", ptr %23, i32 0, i32 20
  %24 = load i64, ptr %num_expired_deletion_records, align 8
  %add18 = add i64 %24, %22
  store i64 %add18, ptr %num_expired_deletion_records, align 8
  br label %if.end19

if.end19:                                         ; preds = %if.then16, %if.then12
  br label %if.end20

if.end20:                                         ; preds = %if.end19, %if.end10
  %25 = load ptr, ptr %c_iter_stats.addr, align 8
  %num_record_drop_range_del = getelementptr inbounds %"struct.rocksdb::CompactionIterationStats", ptr %25, i32 0, i32 3
  %26 = load i64, ptr %num_record_drop_range_del, align 8
  %cmp21 = icmp sgt i64 %26, 0
  br i1 %cmp21, label %if.then22, label %if.end25

if.then22:                                        ; preds = %if.end20
  %stats_23 = getelementptr inbounds %"class.rocksdb::CompactionJob", ptr %this1, i32 0, i32 7
  %27 = load ptr, ptr %stats_23, align 8
  %28 = load ptr, ptr %c_iter_stats.addr, align 8
  %num_record_drop_range_del24 = getelementptr inbounds %"struct.rocksdb::CompactionIterationStats", ptr %28, i32 0, i32 3
  %29 = load i64, ptr %num_record_drop_range_del24, align 8
  call void @_ZN7rocksdb10RecordTickEPNS_10StatisticsEjm(ptr noundef %27, i32 noundef 32, i64 noundef %29)
  br label %if.end25

if.end25:                                         ; preds = %if.then22, %if.end20
  %30 = load ptr, ptr %c_iter_stats.addr, align 8
  %num_range_del_drop_obsolete = getelementptr inbounds %"struct.rocksdb::CompactionIterationStats", ptr %30, i32 0, i32 4
  %31 = load i64, ptr %num_range_del_drop_obsolete, align 8
  %cmp26 = icmp sgt i64 %31, 0
  br i1 %cmp26, label %if.then27, label %if.end30

if.then27:                                        ; preds = %if.end25
  %stats_28 = getelementptr inbounds %"class.rocksdb::CompactionJob", ptr %this1, i32 0, i32 7
  %32 = load ptr, ptr %stats_28, align 8
  %33 = load ptr, ptr %c_iter_stats.addr, align 8
  %num_range_del_drop_obsolete29 = getelementptr inbounds %"struct.rocksdb::CompactionIterationStats", ptr %33, i32 0, i32 4
  %34 = load i64, ptr %num_range_del_drop_obsolete29, align 8
  call void @_ZN7rocksdb10RecordTickEPNS_10StatisticsEjm(ptr noundef %32, i32 noundef 34, i64 noundef %34)
  br label %if.end30

if.end30:                                         ; preds = %if.then27, %if.end25
  %35 = load ptr, ptr %c_iter_stats.addr, align 8
  %num_optimized_del_drop_obsolete = getelementptr inbounds %"struct.rocksdb::CompactionIterationStats", ptr %35, i32 0, i32 5
  %36 = load i64, ptr %num_optimized_del_drop_obsolete, align 8
  %cmp31 = icmp sgt i64 %36, 0
  br i1 %cmp31, label %if.then32, label %if.end35

if.then32:                                        ; preds = %if.end30
  %stats_33 = getelementptr inbounds %"class.rocksdb::CompactionJob", ptr %this1, i32 0, i32 7
  %37 = load ptr, ptr %stats_33, align 8
  %38 = load ptr, ptr %c_iter_stats.addr, align 8
  %num_optimized_del_drop_obsolete34 = getelementptr inbounds %"struct.rocksdb::CompactionIterationStats", ptr %38, i32 0, i32 5
  %39 = load i64, ptr %num_optimized_del_drop_obsolete34, align 8
  call void @_ZN7rocksdb10RecordTickEPNS_10StatisticsEjm(ptr noundef %37, i32 noundef 35, i64 noundef %39)
  br label %if.end35

if.end35:                                         ; preds = %if.then32, %if.end30
  ret void
}