; Function Attrs: mustprogress uwtable
define void @_ZN7rocksdb13CompactionJob17RecordDroppedKeysERKNS_24CompactionIterationStatsEPNS_18CompactionJobStatsE(ptr nocapture noundef nonnull readonly align 8 dereferenceable(1456) %this, ptr nocapture noundef nonnull readonly align 8 dereferenceable(144) %c_iter_stats, ptr noundef %compaction_job_stats) local_unnamed_addr #5 align 2 {
entry:
  %0 = load i64, ptr %c_iter_stats, align 8
  %cmp = icmp sgt i64 %0, 0
  br i1 %cmp, label %if.then, label %if.end

if.then:                                          ; preds = %entry
  %stats_ = getelementptr inbounds i8, ptr %this, i64 576
  %1 = load ptr, ptr %stats_, align 8
  %tobool.not.i = icmp eq ptr %1, null
  br i1 %tobool.not.i, label %if.end, label %if.then.i

if.then.i:                                        ; preds = %if.then
  %vtable.i = load ptr, ptr %1, align 8
  %vfn.i = getelementptr inbounds i8, ptr %vtable.i, i64 176
  %2 = load ptr, ptr %vfn.i, align 8
  tail call void %2(ptr noundef nonnull align 8 dereferenceable(33) %1, i32 noundef 33, i64 noundef %0)
  br label %if.end

if.end:                                           ; preds = %if.then.i, %if.then, %entry
  %num_record_drop_hidden = getelementptr inbounds i8, ptr %c_iter_stats, i64 8
  %3 = load i64, ptr %num_record_drop_hidden, align 8
  %cmp3 = icmp sgt i64 %3, 0
  br i1 %cmp3, label %if.then4, label %if.end10

if.then4:                                         ; preds = %if.end
  %stats_5 = getelementptr inbounds i8, ptr %this, i64 576
  %4 = load ptr, ptr %stats_5, align 8
  %tobool.not.i22 = icmp eq ptr %4, null
  br i1 %tobool.not.i22, label %_ZN7rocksdb10RecordTickEPNS_10StatisticsEjm.exit26, label %if.then.i23

if.then.i23:                                      ; preds = %if.then4
  %vtable.i24 = load ptr, ptr %4, align 8
  %vfn.i25 = getelementptr inbounds i8, ptr %vtable.i24, i64 176
  %5 = load ptr, ptr %vfn.i25, align 8
  tail call void %5(ptr noundef nonnull align 8 dereferenceable(33) %4, i32 noundef 30, i64 noundef %3)
  br label %_ZN7rocksdb10RecordTickEPNS_10StatisticsEjm.exit26

_ZN7rocksdb10RecordTickEPNS_10StatisticsEjm.exit26: ; preds = %if.then4, %if.then.i23
  %tobool.not = icmp eq ptr %compaction_job_stats, null
  br i1 %tobool.not, label %if.end10, label %if.then7

if.then7:                                         ; preds = %_ZN7rocksdb10RecordTickEPNS_10StatisticsEjm.exit26
  %6 = load i64, ptr %num_record_drop_hidden, align 8
  %num_records_replaced = getelementptr inbounds i8, ptr %compaction_job_stats, i64 120
  %7 = load i64, ptr %num_records_replaced, align 8
  %add = add i64 %7, %6
  store i64 %add, ptr %num_records_replaced, align 8
  br label %if.end10

if.end10:                                         ; preds = %_ZN7rocksdb10RecordTickEPNS_10StatisticsEjm.exit26, %if.then7, %if.end
  %num_record_drop_obsolete = getelementptr inbounds i8, ptr %c_iter_stats, i64 16
  %8 = load i64, ptr %num_record_drop_obsolete, align 8
  %cmp11 = icmp sgt i64 %8, 0
  br i1 %cmp11, label %if.then12, label %if.end20

if.then12:                                        ; preds = %if.end10
  %stats_13 = getelementptr inbounds i8, ptr %this, i64 576
  %9 = load ptr, ptr %stats_13, align 8
  %tobool.not.i27 = icmp eq ptr %9, null
  br i1 %tobool.not.i27, label %_ZN7rocksdb10RecordTickEPNS_10StatisticsEjm.exit31, label %if.then.i28

if.then.i28:                                      ; preds = %if.then12
  %vtable.i29 = load ptr, ptr %9, align 8
  %vfn.i30 = getelementptr inbounds i8, ptr %vtable.i29, i64 176
  %10 = load ptr, ptr %vfn.i30, align 8
  tail call void %10(ptr noundef nonnull align 8 dereferenceable(33) %9, i32 noundef 31, i64 noundef %8)
  br label %_ZN7rocksdb10RecordTickEPNS_10StatisticsEjm.exit31

_ZN7rocksdb10RecordTickEPNS_10StatisticsEjm.exit31: ; preds = %if.then12, %if.then.i28
  %tobool15.not = icmp eq ptr %compaction_job_stats, null
  br i1 %tobool15.not, label %if.end20, label %if.then16

if.then16:                                        ; preds = %_ZN7rocksdb10RecordTickEPNS_10StatisticsEjm.exit31
  %11 = load i64, ptr %num_record_drop_obsolete, align 8
  %num_expired_deletion_records = getelementptr inbounds i8, ptr %compaction_job_stats, i64 152
  %12 = load i64, ptr %num_expired_deletion_records, align 8
  %add18 = add i64 %12, %11
  store i64 %add18, ptr %num_expired_deletion_records, align 8
  br label %if.end20

if.end20:                                         ; preds = %_ZN7rocksdb10RecordTickEPNS_10StatisticsEjm.exit31, %if.then16, %if.end10
  %num_record_drop_range_del = getelementptr inbounds i8, ptr %c_iter_stats, i64 24
  %13 = load i64, ptr %num_record_drop_range_del, align 8
  %cmp21 = icmp sgt i64 %13, 0
  br i1 %cmp21, label %if.then22, label %if.end25

if.then22:                                        ; preds = %if.end20
  %stats_23 = getelementptr inbounds i8, ptr %this, i64 576
  %14 = load ptr, ptr %stats_23, align 8
  %tobool.not.i32 = icmp eq ptr %14, null
  br i1 %tobool.not.i32, label %if.end25, label %if.then.i33

if.then.i33:                                      ; preds = %if.then22
  %vtable.i34 = load ptr, ptr %14, align 8
  %vfn.i35 = getelementptr inbounds i8, ptr %vtable.i34, i64 176
  %15 = load ptr, ptr %vfn.i35, align 8
  tail call void %15(ptr noundef nonnull align 8 dereferenceable(33) %14, i32 noundef 32, i64 noundef %13)
  br label %if.end25

if.end25:                                         ; preds = %if.then.i33, %if.then22, %if.end20
  %num_range_del_drop_obsolete = getelementptr inbounds i8, ptr %c_iter_stats, i64 32
  %16 = load i64, ptr %num_range_del_drop_obsolete, align 8
  %cmp26 = icmp sgt i64 %16, 0
  br i1 %cmp26, label %if.then27, label %if.end30

if.then27:                                        ; preds = %if.end25
  %stats_28 = getelementptr inbounds i8, ptr %this, i64 576
  %17 = load ptr, ptr %stats_28, align 8
  %tobool.not.i37 = icmp eq ptr %17, null
  br i1 %tobool.not.i37, label %if.end30, label %if.then.i38

if.then.i38:                                      ; preds = %if.then27
  %vtable.i39 = load ptr, ptr %17, align 8
  %vfn.i40 = getelementptr inbounds i8, ptr %vtable.i39, i64 176
  %18 = load ptr, ptr %vfn.i40, align 8
  tail call void %18(ptr noundef nonnull align 8 dereferenceable(33) %17, i32 noundef 34, i64 noundef %16)
  br label %if.end30

if.end30:                                         ; preds = %if.then.i38, %if.then27, %if.end25
  %num_optimized_del_drop_obsolete = getelementptr inbounds i8, ptr %c_iter_stats, i64 40
  %19 = load i64, ptr %num_optimized_del_drop_obsolete, align 8
  %cmp31 = icmp sgt i64 %19, 0
  br i1 %cmp31, label %if.then32, label %if.end35

if.then32:                                        ; preds = %if.end30
  %stats_33 = getelementptr inbounds i8, ptr %this, i64 576
  %20 = load ptr, ptr %stats_33, align 8
  %tobool.not.i42 = icmp eq ptr %20, null
  br i1 %tobool.not.i42, label %if.end35, label %if.then.i43

if.then.i43:                                      ; preds = %if.then32
  %vtable.i44 = load ptr, ptr %20, align 8
  %vfn.i45 = getelementptr inbounds i8, ptr %vtable.i44, i64 176
  %21 = load ptr, ptr %vfn.i45, align 8
  tail call void %21(ptr noundef nonnull align 8 dereferenceable(33) %20, i32 noundef 35, i64 noundef %19)
  br label %if.end35

if.end35:                                         ; preds = %if.then.i43, %if.then32, %if.end30
  ret void
}